; Function Attrs: mustprogress nofree norecurse nosync nounwind willreturn memory(write, argmem: readwrite, inaccessiblemem: none) uwtable
define dso_local void @_ZN4Luau7CodeGen19UnwindBuilderDwarf214finishFunctionEjj(ptr noundef nonnull align 8 captures(none) dereferenceable(1080) %0, i32 noundef %1, i32 noundef %2) unnamed_addr #2 align 2 {
  %4 = getelementptr inbounds nuw i8, ptr %0, i64 24
  %5 = load ptr, ptr %4, align 8, !tbaa !27
  %6 = getelementptr inbounds i8, ptr %5, i64 -12
  store i32 %1, ptr %6, align 4, !tbaa !28
  %7 = getelementptr inbounds i8, ptr %5, i64 -8
  store i32 %2, ptr %7, align 4, !tbaa !30
  %8 = getelementptr inbounds nuw i8, ptr %0, i64 1072
  %9 = load ptr, ptr %8, align 8, !tbaa !26
  %10 = getelementptr inbounds nuw i8, ptr %0, i64 1064
  %11 = load ptr, ptr %10, align 8, !tbaa !17
  %12 = ptrtoint ptr %11 to i64
  %13 = ptrtoint ptr %9 to i64
  %14 = sub i64 %12, %13
  %15 = add i64 %14, 7
  %16 = and i64 %15, -8
  %.not.i = icmp eq i64 %16, %14
  br i1 %.not.i, label %_ZL13alignPositionPhS_.exit, label %.lr.ph.preheader.i

.lr.ph.preheader.i:                               ; preds = %3
  %17 = sub i64 %16, %14
  %umax.i = tail call i64 @llvm.umax.i64(i64 %17, i64 1)
  tail call void @llvm.memset.p0.i64(ptr noundef nonnull align 1 dereferenceable(1) %11, i8 0, i64 %umax.i, i1 false), !tbaa !18
  %scevgep.i = getelementptr i8, ptr %11, i64 %umax.i
  %.pre = load ptr, ptr %8, align 8, !tbaa !26
  %.pre2 = ptrtoint ptr %scevgep.i to i64
  %.pre3 = ptrtoint ptr %.pre to i64
  %.pre5 = sub i64 %.pre2, %.pre3
  br label %_ZL13alignPositionPhS_.exit

_ZL13alignPositionPhS_.exit:                      ; preds = %3, %.lr.ph.preheader.i
  %.pre-phi6 = phi i64 [ %14, %3 ], [ %.pre5, %.lr.ph.preheader.i ]
  %18 = phi ptr [ %9, %3 ], [ %.pre, %.lr.ph.preheader.i ]
  %.08.lcssa.i = phi ptr [ %11, %3 ], [ %scevgep.i, %.lr.ph.preheader.i ]
  store ptr %.08.lcssa.i, ptr %10, align 8, !tbaa !17
  %19 = trunc i64 %.pre-phi6 to i32
  %20 = add i32 %19, -4
  store i32 %20, ptr %18, align 1
  ret void
}